target datalayout = "e-m:e-p270:32:32-p271:32:32-p272:64:64-i64:64-i128:128-f80:128-n8:16:32:64-S128"
target triple = "x86_64-pc-linux-gnu"

%struct.stat = type { i64, i64, i64, i32, i32, i32, i32, i64, i64, i64, i64, %struct.timespec, %struct.timespec, %struct.timespec, [3 x i64] }
%struct.timespec = type { i64, i64 }

@.str = private unnamed_addr constant [31 x i8] c"could not access file \22%s\22: %m\00", align 1
@.str.1 = private unnamed_addr constant [5 x i8] c"fd.c\00", align 1
@__func__.pg_file_exists = private unnamed_addr constant [15 x i8] c"pg_file_exists\00", align 1

; Function Attrs: nounwind uwtable
define dso_local zeroext i1 @pg_file_exists(ptr noundef %0) #0 {
  %2 = alloca i1, align 1
  %3 = alloca ptr, align 8
  %4 = alloca %struct.stat, align 8
  %5 = alloca i32, align 4
  store ptr %0, ptr %3, align 8
  call void @llvm.lifetime.start.p0(i64 144, ptr %4) #14
  %6 = load ptr, ptr %3, align 8
  %7 = call i32 @stat(ptr noundef %6, ptr noundef %4) #14
  %8 = icmp eq i32 %7, 0
  br i1 %8, label %9, label %15

9:                                                ; preds = %1
  %10 = getelementptr inbounds nuw %struct.stat, ptr %4, i32 0, i32 3
  %11 = load i32, ptr %10, align 8
  %12 = and i32 %11, 61440
  %13 = icmp eq i32 %12, 16384
  %14 = xor i1 %13, true
  store i1 %14, ptr %2, align 1
  store i32 1, ptr %5, align 4
  br label %42

15:                                               ; preds = %1
  %16 = call ptr @__errno_location() #15
  %17 = load i32, ptr %16, align 4
  %18 = icmp eq i32 %17, 2
  br i1 %18, label %40, label %19

19:                                               ; preds = %15
  %20 = call ptr @__errno_location() #15
  %21 = load i32, ptr %20, align 4
  %22 = icmp eq i32 %21, 20
  br i1 %22, label %40, label %23

23:                                               ; preds = %19
  %24 = call ptr @__errno_location() #15
  %25 = load i32, ptr %24, align 4
  %26 = icmp eq i32 %25, 13
  br i1 %26, label %40, label %27

27:                                               ; preds = %23
  br label %28

28:                                               ; preds = %27
  br i1 true, label %29, label %31

29:                                               ; preds = %28
  %30 = call zeroext i1 @errstart_cold(i32 noundef 21, ptr noundef null) #16
  br i1 %30, label %33, label %37

31:                                               ; preds = %28
  %32 = call zeroext i1 @errstart(i32 noundef 21, ptr noundef null)
  br i1 %32, label %33, label %37

33:                                               ; preds = %31, %29
  %34 = call i32 @errcode_for_file_access()
  %35 = load ptr, ptr %3, align 8
  %36 = call i32 (ptr, ...) @errmsg(ptr noundef @.str, ptr noundef %35)
  call void @errfinish(ptr noundef @.str.1, i32 noundef 513, ptr noundef @__func__.pg_file_exists)
  br label %37

37:                                               ; preds = %33, %31, %29
  unreachable

38:                                               ; No predecessors!
  br label %39

39:                                               ; preds = %38
  br label %40

40:                                               ; preds = %39, %23, %19, %15
  br label %41

41:                                               ; preds = %40
  store i1 false, ptr %2, align 1
  store i32 1, ptr %5, align 4
  br label %42

42:                                               ; preds = %41, %9
  call void @llvm.lifetime.end.p0(i64 144, ptr %4) #14
  %43 = load i1, ptr %2, align 1
  ret i1 %43
}