; Function Attrs: nounwind uwtable
define dso_local zeroext i1 @pg_file_exists(ptr noundef %0) local_unnamed_addr #0 {
  %2 = alloca %struct.stat, align 8
  call void @llvm.lifetime.start.p0(i64 144, ptr nonnull %2) #25
  %3 = call i32 @stat(ptr noundef %0, ptr noundef nonnull %2) #25
  %4 = icmp eq i32 %3, 0
  br i1 %4, label %5, label %10

5:                                                ; preds = %1
  %6 = getelementptr inbounds nuw i8, ptr %2, i64 24
  %7 = load i32, ptr %6, align 8
  %8 = and i32 %7, 61440
  %9 = icmp ne i32 %8, 16384
  br label %17

10:                                               ; preds = %1
  %11 = tail call ptr @__errno_location() #26
  %12 = load i32, ptr %11, align 4
  switch i32 %12, label %13 [
    i32 2, label %17
    i32 20, label %17
    i32 13, label %17
  ]

13:                                               ; preds = %10
  %14 = tail call zeroext i1 @errstart_cold(i32 noundef 21, ptr noundef null) #27
  tail call void @llvm.assume(i1 %14)
  %15 = tail call i32 @errcode_for_file_access() #25
  %16 = tail call i32 (ptr, ...) @errmsg(ptr noundef nonnull @.str, ptr noundef %0) #25
  tail call void @errfinish(ptr noundef nonnull @.str.1, i32 noundef 513, ptr noundef nonnull @__func__.pg_file_exists) #25
  unreachable

17:                                               ; preds = %10, %10, %10, %5
  %.0 = phi i1 [ %9, %5 ], [ false, %10 ], [ false, %10 ], [ false, %10 ]
  call void @llvm.lifetime.end.p0(i64 144, ptr nonnull %2) #25
  ret i1 %.0
}